; Function Attrs: mustprogress nounwind uwtable
define hidden void @_ZN3smt15model_generator12scoped_resetD2Ev(ptr nocapture noundef nonnull readonly align 8 dereferenceable(16) %this) unnamed_addr #4 align 2 personality ptr @__gxx_personality_v0 {
entry:
  %procs = getelementptr inbounds i8, ptr %this, i64 8
  %0 = load ptr, ptr %procs, align 8
  %1 = load ptr, ptr %0, align 8
  %cmp.i.i = icmp eq ptr %1, null
  br i1 %cmp.i.i, label %invoke.cont5, label %invoke.cont3

invoke.cont3:                                     ; preds = %entry
  %arrayidx.i.i = getelementptr inbounds i8, ptr %1, i64 -4
  %2 = load i32, ptr %arrayidx.i.i, align 4
  %3 = zext i32 %2 to i64
  %add.ptr.i = getelementptr inbounds ptr, ptr %1, i64 %3
  %cmp.not3.i = icmp eq i32 %2, 0
  br i1 %cmp.not3.i, label %invoke.cont5, label %for.body.i

for.body.i:                                       ; preds = %invoke.cont3, %_ZN11delete_procIN3smt16model_value_procEEclEPS1_.exit.i
  %__first.addr.04.i = phi ptr [ %incdec.ptr.i, %_ZN11delete_procIN3smt16model_value_procEEclEPS1_.exit.i ], [ %1, %invoke.cont3 ]
  %4 = load ptr, ptr %__first.addr.04.i, align 8
  %tobool.not.i.i = icmp eq ptr %4, null
  br i1 %tobool.not.i.i, label %_ZN11delete_procIN3smt16model_value_procEEclEPS1_.exit.i, label %_Z7deallocIN3smt16model_value_procEEvPT_.exit.i.i

_Z7deallocIN3smt16model_value_procEEvPT_.exit.i.i: ; preds = %for.body.i
  %vtable.i.i.i = load ptr, ptr %4, align 8
  %5 = load ptr, ptr %vtable.i.i.i, align 8
  tail call void %5(ptr noundef nonnull align 8 dereferenceable(8) %4) #18
  invoke void @_ZN6memory10deallocateEPv(ptr noundef nonnull %4)
          to label %_ZN11delete_procIN3smt16model_value_procEEclEPS1_.exit.i unwind label %terminate.lpad.loopexit.split-lp

_ZN11delete_procIN3smt16model_value_procEEclEPS1_.exit.i: ; preds = %_Z7deallocIN3smt16model_value_procEEvPT_.exit.i.i, %for.body.i
  %incdec.ptr.i = getelementptr inbounds i8, ptr %__first.addr.04.i, i64 8
  %cmp.not.i = icmp eq ptr %incdec.ptr.i, %add.ptr.i
  br i1 %cmp.not.i, label %invoke.cont5, label %for.body.i, !llvm.loop !21

invoke.cont5:                                     ; preds = %_ZN11delete_procIN3smt16model_value_procEEclEPS1_.exit.i, %entry, %invoke.cont3
  %6 = load ptr, ptr %this, align 8
  %m_extra_fresh_values = getelementptr inbounds i8, ptr %6, i64 16
  %7 = load ptr, ptr %m_extra_fresh_values, align 8
  %cmp.i.i1 = icmp eq ptr %7, null
  br i1 %cmp.i.i1, label %_ZN6vectorIPN3smt17extra_fresh_valueELb0EjE5resetEv.exit, label %invoke.cont10

invoke.cont10:                                    ; preds = %invoke.cont5
  %arrayidx.i.i3 = getelementptr inbounds i8, ptr %7, i64 -4
  %8 = load i32, ptr %arrayidx.i.i3, align 4
  %9 = zext i32 %8 to i64
  %add.ptr.i5 = getelementptr inbounds ptr, ptr %7, i64 %9
  %cmp.not3.i6 = icmp eq i32 %8, 0
  br i1 %cmp.not3.i6, label %if.then.i, label %for.body.i7

for.body.i7:                                      ; preds = %invoke.cont10, %_ZN11delete_procIN3smt17extra_fresh_valueEEclEPS1_.exit.i
  %__first.addr.04.i8 = phi ptr [ %incdec.ptr.i10, %_ZN11delete_procIN3smt17extra_fresh_valueEEclEPS1_.exit.i ], [ %7, %invoke.cont10 ]
  %10 = load ptr, ptr %__first.addr.04.i8, align 8
  %tobool.not.i.i9 = icmp eq ptr %10, null
  br i1 %tobool.not.i.i9, label %_ZN11delete_procIN3smt17extra_fresh_valueEEclEPS1_.exit.i, label %_Z7deallocIN3smt17extra_fresh_valueEEvPT_.exit.i.i

_Z7deallocIN3smt17extra_fresh_valueEEvPT_.exit.i.i: ; preds = %for.body.i7
  invoke void @_ZN6memory10deallocateEPv(ptr noundef nonnull %10)
          to label %_ZN11delete_procIN3smt17extra_fresh_valueEEclEPS1_.exit.i unwind label %terminate.lpad.loopexit

_ZN11delete_procIN3smt17extra_fresh_valueEEclEPS1_.exit.i: ; preds = %_Z7deallocIN3smt17extra_fresh_valueEEvPT_.exit.i.i, %for.body.i7
  %incdec.ptr.i10 = getelementptr inbounds i8, ptr %__first.addr.04.i8, i64 8
  %cmp.not.i11 = icmp eq ptr %incdec.ptr.i10, %add.ptr.i5
  br i1 %cmp.not.i11, label %invoke.cont13, label %for.body.i7, !llvm.loop !22

invoke.cont13:                                    ; preds = %_ZN11delete_procIN3smt17extra_fresh_valueEEclEPS1_.exit.i
  %.pre = load ptr, ptr %this, align 8
  %m_extra_fresh_values16.phi.trans.insert = getelementptr inbounds i8, ptr %.pre, i64 16
  %.pre13 = load ptr, ptr %m_extra_fresh_values16.phi.trans.insert, align 8
  %tobool.not.i = icmp eq ptr %.pre13, null
  br i1 %tobool.not.i, label %_ZN6vectorIPN3smt17extra_fresh_valueELb0EjE5resetEv.exit, label %if.then.i

if.then.i:                                        ; preds = %invoke.cont10, %invoke.cont13
  %11 = phi ptr [ %.pre13, %invoke.cont13 ], [ %7, %invoke.cont10 ]
  %arrayidx.i = getelementptr inbounds i8, ptr %11, i64 -4
  store i32 0, ptr %arrayidx.i, align 4
  br label %_ZN6vectorIPN3smt17extra_fresh_valueELb0EjE5resetEv.exit

_ZN6vectorIPN3smt17extra_fresh_valueELb0EjE5resetEv.exit: ; preds = %invoke.cont5, %invoke.cont13, %if.then.i
  ret void

terminate.lpad.loopexit:                          ; preds = %_Z7deallocIN3smt17extra_fresh_valueEEvPT_.exit.i.i
  %lpad.loopexit = landingpad { ptr, i32 }
          catch ptr null
  br label %terminate.lpad

terminate.lpad.loopexit.split-lp:                 ; preds = %_Z7deallocIN3smt16model_value_procEEvPT_.exit.i.i
  %lpad.loopexit.split-lp = landingpad { ptr, i32 }
          catch ptr null
  br label %terminate.lpad

terminate.lpad:                                   ; preds = %terminate.lpad.loopexit.split-lp, %terminate.lpad.loopexit
  %lpad.phi = phi { ptr, i32 } [ %lpad.loopexit, %terminate.lpad.loopexit ], [ %lpad.loopexit.split-lp, %terminate.lpad.loopexit.split-lp ]
  %12 = extractvalue { ptr, i32 } %lpad.phi, 0
  tail call void @__clang_call_terminate(ptr %12) #19
  unreachable
}